target datalayout = "e-m:e-p270:32:32-p271:32:32-p272:64:64-i64:64-i128:128-f80:128-n8:16:32:64-S128"
target triple = "x86_64-pc-linux-gnu"

@.str.26 = private unnamed_addr constant [16 x i8] c"IDAGetLastOrder\00", align 1
@.str.27 = private unnamed_addr constant [15 x i8] c"IDAGetNumSteps\00", align 1
@.str.28 = private unnamed_addr constant [15 x i8] c"IDAGetLastStep\00", align 1
@.str.29 = private unnamed_addr constant [48 x i8] c"%10.4e %12.4e %12.4e %12.4e | %3ld  %1d %12.4e\0A\00", align 1
@stderr = external global ptr, align 8
@.str.31 = private unnamed_addr constant [55 x i8] c"\0ASUNDIALS_ERROR: %s() failed - returned NULL pointer\0A\0A\00", align 1
@.str.32 = private unnamed_addr constant [48 x i8] c"\0ASUNDIALS_ERROR: %s() failed with retval = %d\0A\0A\00", align 1
@.str.33 = private unnamed_addr constant [53 x i8] c"\0AMEMORY_ERROR: %s() failed - returned NULL pointer\0A\0A\00", align 1

; Function Attrs: nounwind uwtable
define internal i32 @check_retval(ptr noundef %0, ptr noundef %1, i32 noundef %2) #0 {
  %4 = alloca i32, align 4
  %5 = alloca ptr, align 8
  %6 = alloca ptr, align 8
  %7 = alloca i32, align 4
  %8 = alloca ptr, align 8
  %9 = alloca i32, align 4
  store ptr %0, ptr %5, align 8, !tbaa !4
  store ptr %1, ptr %6, align 8, !tbaa !26
  store i32 %2, ptr %7, align 4, !tbaa !18
  call void @llvm.lifetime.start.p0(i64 8, ptr %8) #5
  %10 = load i32, ptr %7, align 4, !tbaa !18
  %11 = icmp eq i32 %10, 0
  br i1 %11, label %12, label %19

12:                                               ; preds = %3
  %13 = load ptr, ptr %5, align 8, !tbaa !4
  %14 = icmp eq ptr %13, null
  br i1 %14, label %15, label %19

15:                                               ; preds = %12
  %16 = load ptr, ptr @stderr, align 8, !tbaa !24
  %17 = load ptr, ptr %6, align 8, !tbaa !26
  %18 = call i32 (ptr, ptr, ...) @fprintf(ptr noundef %16, ptr noundef @.str.31, ptr noundef %17) #5
  store i32 1, ptr %4, align 4
  store i32 1, ptr %9, align 4
  br label %47

19:                                               ; preds = %12, %3
  %20 = load i32, ptr %7, align 4, !tbaa !18
  %21 = icmp eq i32 %20, 1
  br i1 %21, label %22, label %34

22:                                               ; preds = %19
  %23 = load ptr, ptr %5, align 8, !tbaa !4
  store ptr %23, ptr %8, align 8, !tbaa !28
  %24 = load ptr, ptr %8, align 8, !tbaa !28
  %25 = load i32, ptr %24, align 4, !tbaa !18
  %26 = icmp slt i32 %25, 0
  br i1 %26, label %27, label %33

27:                                               ; preds = %22
  %28 = load ptr, ptr @stderr, align 8, !tbaa !24
  %29 = load ptr, ptr %6, align 8, !tbaa !26
  %30 = load ptr, ptr %8, align 8, !tbaa !28
  %31 = load i32, ptr %30, align 4, !tbaa !18
  %32 = call i32 (ptr, ptr, ...) @fprintf(ptr noundef %28, ptr noundef @.str.32, ptr noundef %29, i32 noundef %31) #5
  store i32 1, ptr %4, align 4
  store i32 1, ptr %9, align 4
  br label %47

33:                                               ; preds = %22
  br label %45

34:                                               ; preds = %19
  %35 = load i32, ptr %7, align 4, !tbaa !18
  %36 = icmp eq i32 %35, 2
  br i1 %36, label %37, label %44

37:                                               ; preds = %34
  %38 = load ptr, ptr %5, align 8, !tbaa !4
  %39 = icmp eq ptr %38, null
  br i1 %39, label %40, label %44

40:                                               ; preds = %37
  %41 = load ptr, ptr @stderr, align 8, !tbaa !24
  %42 = load ptr, ptr %6, align 8, !tbaa !26
  %43 = call i32 (ptr, ptr, ...) @fprintf(ptr noundef %41, ptr noundef @.str.33, ptr noundef %42) #5
  store i32 1, ptr %4, align 4
  store i32 1, ptr %9, align 4
  br label %47

44:                                               ; preds = %37, %34
  br label %45

45:                                               ; preds = %44, %33
  br label %46

46:                                               ; preds = %45
  store i32 0, ptr %4, align 4
  store i32 1, ptr %9, align 4
  br label %47

47:                                               ; preds = %46, %40, %27, %15
  call void @llvm.lifetime.end.p0(i64 8, ptr %8) #5
  %48 = load i32, ptr %4, align 4
  ret i32 %48
}

; Function Attrs: nounwind uwtable
define internal void @PrintOutput(ptr noundef %0, double noundef %1, ptr noundef %2) #0 {
  %4 = alloca ptr, align 8
  %5 = alloca double, align 8
  %6 = alloca ptr, align 8
  %7 = alloca ptr, align 8
  %8 = alloca i32, align 4
  %9 = alloca i32, align 4
  %10 = alloca i64, align 8
  %11 = alloca double, align 8
  store ptr %0, ptr %4, align 8, !tbaa !4
  store double %1, ptr %5, align 8, !tbaa !22
  store ptr %2, ptr %6, align 8, !tbaa !8
  call void @llvm.lifetime.start.p0(i64 8, ptr %7) #5
  call void @llvm.lifetime.start.p0(i64 4, ptr %8) #5
  call void @llvm.lifetime.start.p0(i64 4, ptr %9) #5
  call void @llvm.lifetime.start.p0(i64 8, ptr %10) #5
  call void @llvm.lifetime.start.p0(i64 8, ptr %11) #5
  %12 = load ptr, ptr %6, align 8, !tbaa !8
  %13 = call ptr @N_VGetArrayPointer(ptr noundef %12)
  store ptr %13, ptr %7, align 8, !tbaa !10
  %14 = load ptr, ptr %4, align 8, !tbaa !4
  %15 = call i32 @IDAGetLastOrder(ptr noundef %14, ptr noundef %9)
  store i32 %15, ptr %8, align 4, !tbaa !18
  %16 = call i32 @check_retval(ptr noundef %8, ptr noundef @.str.26, i32 noundef 1)
  %17 = load ptr, ptr %4, align 8, !tbaa !4
  %18 = call i32 @IDAGetNumSteps(ptr noundef %17, ptr noundef %10)
  store i32 %18, ptr %8, align 4, !tbaa !18
  %19 = call i32 @check_retval(ptr noundef %8, ptr noundef @.str.27, i32 noundef 1)
  %20 = load ptr, ptr %4, align 8, !tbaa !4
  %21 = call i32 @IDAGetLastStep(ptr noundef %20, ptr noundef %11)
  store i32 %21, ptr %8, align 4, !tbaa !18
  %22 = call i32 @check_retval(ptr noundef %8, ptr noundef @.str.28, i32 noundef 1)
  %23 = load double, ptr %5, align 8, !tbaa !22
  %24 = load ptr, ptr %7, align 8, !tbaa !10
  %25 = getelementptr inbounds double, ptr %24, i64 0
  %26 = load double, ptr %25, align 8, !tbaa !22
  %27 = load ptr, ptr %7, align 8, !tbaa !10
  %28 = getelementptr inbounds double, ptr %27, i64 1
  %29 = load double, ptr %28, align 8, !tbaa !22
  %30 = load ptr, ptr %7, align 8, !tbaa !10
  %31 = getelementptr inbounds double, ptr %30, i64 2
  %32 = load double, ptr %31, align 8, !tbaa !22
  %33 = load i64, ptr %10, align 8, !tbaa !37
  %34 = load i32, ptr %9, align 4, !tbaa !18
  %35 = load double, ptr %11, align 8, !tbaa !22
  %36 = call i32 (ptr, ...) @printf(ptr noundef @.str.29, double noundef %23, double noundef %26, double noundef %29, double noundef %32, i64 noundef %33, i32 noundef %34, double noundef %35)
  call void @llvm.lifetime.end.p0(i64 8, ptr %11) #5
  call void @llvm.lifetime.end.p0(i64 8, ptr %10) #5
  call void @llvm.lifetime.end.p0(i64 4, ptr %9) #5
  call void @llvm.lifetime.end.p0(i64 4, ptr %8) #5
  call void @llvm.lifetime.end.p0(i64 8, ptr %7) #5
  ret void
}